target datalayout = "e-m:e-p270:32:32-p271:32:32-p272:64:64-i64:64-i128:128-f80:128-n8:16:32:64-S128"
target triple = "x86_64-pc-linux-gnu"

%struct.record_layer_st = type { ptr, ptr, ptr, ptr, ptr, ptr, ptr, ptr, i64, i32, i64, [4 x i8], i64, i64, i8, ptr, i32, ptr, ptr, ptr, i64, i64, i64, i64, [32 x %struct.tls_record_st] }
%struct.tls_record_st = type { ptr, i32, i8, ptr, ptr, i64, i64, i16, [8 x i8] }
%struct.ssl_connection_st = type { %struct.ssl_st, ptr, i32, ptr, ptr, ptr, i32, ptr, i32, i32, i32, i32, %struct.OSSL_TIME, %struct.OSSL_TIME, %struct.ossl_statem_st, i32, ptr, ptr, i64, i64, i64, %struct.ossl_quic_tls_callbacks_st, ptr, ptr, %struct.anon, ptr, ptr, ptr, i32, ptr, %struct.ssl_dane_st, ptr, ptr, ptr, ptr, i32, [64 x i8], [64 x i8], [64 x i8], [64 x i8], [64 x i8], [64 x i8], [64 x i8], [64 x i8], [64 x i8], [64 x i8], [64 x i8], [64 x i8], ptr, [64 x i8], i64, i32, i64, [32 x i8], ptr, ptr, ptr, i64, ptr, [32 x i8], i64, i32, ptr, ptr, i32, i32, ptr, ptr, ptr, ptr, ptr, i64, ptr, ptr, i64, i32, i32, i32, i64, i32, i32, i64, i64, i64, %struct.anon.1, ptr, i32, ptr, ptr, ptr, i32, ptr, ptr, ptr, i32, i32, i32, i32, ptr, i64, i32, ptr, %struct.srp_ctx_st, ptr, %struct.record_layer_st, ptr, ptr, ptr, ptr, i64, i32, i32, i32, i64, i64, i64, ptr, ptr, ptr, ptr, ptr, i64, ptr, i64, ptr, i64 }
%struct.ssl_st = type { i32, ptr, ptr, ptr, %struct.CRYPTO_REF_COUNT, ptr, %struct.crypto_ex_data_st }
%struct.CRYPTO_REF_COUNT = type { i32 }
%struct.crypto_ex_data_st = type { ptr, ptr }
%struct.OSSL_TIME = type { i64 }
%struct.ossl_statem_st = type { i32, i32, i32, i32, i32, i32, i32, i32, i32, i32, i32, i32, i32, ptr, ptr, ptr, i8 }
%struct.ossl_quic_tls_callbacks_st = type { ptr, ptr, ptr, ptr, ptr, ptr }
%struct.anon = type { i64, [32 x i8], [32 x i8], ptr, ptr, i32, i32, i32, i32, [2 x i8], i32, i32, i32, i32, %struct.anon.0, [64 x i8], i64, [64 x i8], i64, i32, i32, ptr, i64, ptr, i64, i32, i8, i8, i16, ptr, i16 }
%struct.anon.0 = type { [128 x i8], i64, [128 x i8], i64, i64, i32, ptr, ptr, [4 x ptr], [4 x i16], i64, i32, ptr, i64, ptr, i64, ptr, ptr, ptr, i32, i64, ptr, i32, ptr, i64, ptr, i64, ptr, i64, ptr, ptr, ptr, ptr, i64, i64, ptr, ptr, i32, i32, i32, i32 }
%struct.ssl_dane_st = type { ptr, ptr, ptr, ptr, ptr, i32, i32, i32, i64 }
%struct.anon.1 = type { [29 x i8], ptr, ptr, ptr, i32, ptr, i16, i32, %struct.anon.2, i32, i32, i64, ptr, i64, ptr, i64, ptr, i64, ptr, i64, ptr, i64, ptr, ptr, ptr, ptr, ptr, ptr, ptr, i64, ptr, i64, i32, i32, i32, i32, ptr, i64, i32, i8, i32, [4 x i32], i32, i8, i8, i8, i8 }
%struct.anon.2 = type { ptr, ptr, ptr, i64 }
%struct.srp_ctx_st = type { ptr, ptr, ptr, ptr, ptr, ptr, ptr, ptr, ptr, ptr, ptr, ptr, ptr, ptr, i32, i64 }
%struct.ossl_record_method_st = type { ptr, ptr, ptr, ptr, ptr, ptr, ptr, ptr, ptr, ptr, ptr, ptr, ptr, ptr, ptr, ptr, ptr, ptr, ptr, ptr, ptr, ptr, ptr, ptr, ptr }
%struct.ossl_record_template_st = type { i8, i32, ptr, i64 }
%struct.ssl_method_st = type { i32, i32, i64, ptr, ptr, ptr, ptr, ptr, ptr, ptr, ptr, ptr, ptr, ptr, ptr, ptr, ptr, ptr, ptr, ptr, ptr, ptr, ptr, ptr, ptr, ptr, ptr, ptr, ptr, ptr, ptr, ptr }

@.str = private unnamed_addr constant [37 x i8] c"../openssl/ssl/record/rec_layer_d1.c\00", align 1
@__func__.do_dtls1_write = private unnamed_addr constant [15 x i8] c"do_dtls1_write\00", align 1

; Function Attrs: nounwind uwtable
define i32 @do_dtls1_write(ptr noundef %0, i8 noundef zeroext %1, ptr noundef %2, i64 noundef %3, ptr noundef %4) #0 {
  %6 = alloca i32, align 4
  %7 = alloca ptr, align 8
  %8 = alloca i8, align 1
  %9 = alloca ptr, align 8
  %10 = alloca i64, align 8
  %11 = alloca ptr, align 8
  %12 = alloca i32, align 4
  %13 = alloca %struct.ossl_record_template_st, align 8
  %14 = alloca ptr, align 8
  %15 = alloca i32, align 4
  %16 = alloca i32, align 4
  store ptr %0, ptr %7, align 8, !tbaa !97
  store i8 %1, ptr %8, align 1, !tbaa !90
  store ptr %2, ptr %9, align 8, !tbaa !91
  store i64 %3, ptr %10, align 8, !tbaa !92
  store ptr %4, ptr %11, align 8, !tbaa !94
  call void @llvm.lifetime.start.p0(i64 4, ptr %12) #7
  call void @llvm.lifetime.start.p0(i64 24, ptr %13) #7
  call void @llvm.lifetime.start.p0(i64 8, ptr %14) #7
  %17 = load ptr, ptr %7, align 8, !tbaa !97
  %18 = getelementptr inbounds nuw %struct.ssl_connection_st, ptr %17, i32 0, i32 0
  store ptr %18, ptr %14, align 8, !tbaa !89
  call void @llvm.lifetime.start.p0(i64 4, ptr %15) #7
  %19 = load ptr, ptr %7, align 8, !tbaa !97
  %20 = getelementptr inbounds nuw %struct.ssl_connection_st, ptr %19, i32 0, i32 24
  %21 = getelementptr inbounds nuw %struct.anon, ptr %20, i32 0, i32 8
  %22 = load i32, ptr %21, align 4, !tbaa !158
  %23 = icmp sgt i32 %22, 0
  br i1 %23, label %24, label %37

24:                                               ; preds = %5
  %25 = load ptr, ptr %14, align 8, !tbaa !89
  %26 = getelementptr inbounds nuw %struct.ssl_st, ptr %25, i32 0, i32 3
  %27 = load ptr, ptr %26, align 8, !tbaa !159
  %28 = getelementptr inbounds nuw %struct.ssl_method_st, ptr %27, i32 0, i32 19
  %29 = load ptr, ptr %28, align 8, !tbaa !160
  %30 = load ptr, ptr %14, align 8, !tbaa !89
  %31 = call i32 %29(ptr noundef %30)
  store i32 %31, ptr %12, align 4, !tbaa !93
  %32 = load i32, ptr %12, align 4, !tbaa !93
  %33 = icmp sle i32 %32, 0
  br i1 %33, label %34, label %36

34:                                               ; preds = %24
  %35 = load i32, ptr %12, align 4, !tbaa !93
  store i32 %35, ptr %6, align 4
  store i32 1, ptr %16, align 4
  br label %97

36:                                               ; preds = %24
  br label %37

37:                                               ; preds = %36, %5
  %38 = load i64, ptr %10, align 8, !tbaa !92
  %39 = icmp eq i64 %38, 0
  br i1 %39, label %40, label %41

40:                                               ; preds = %37
  store i32 0, ptr %6, align 4
  store i32 1, ptr %16, align 4
  br label %97

41:                                               ; preds = %37
  %42 = load i64, ptr %10, align 8, !tbaa !92
  %43 = load ptr, ptr %7, align 8, !tbaa !97
  %44 = call i32 @ssl_get_max_send_fragment(ptr noundef %43)
  %45 = zext i32 %44 to i64
  %46 = icmp ugt i64 %42, %45
  br i1 %46, label %47, label %49

47:                                               ; preds = %41
  call void @ERR_new()
  call void @ERR_set_debug(ptr noundef @.str, i32 noundef 642, ptr noundef @__func__.do_dtls1_write)
  %48 = load ptr, ptr %7, align 8, !tbaa !97
  call void (ptr, i32, i32, ptr, ...) @ossl_statem_fatal(ptr noundef %48, i32 noundef 80, i32 noundef 194, ptr noundef null)
  store i32 0, ptr %6, align 4
  store i32 1, ptr %16, align 4
  br label %97

49:                                               ; preds = %41
  %50 = load i8, ptr %8, align 1, !tbaa !90
  %51 = getelementptr inbounds nuw %struct.ossl_record_template_st, ptr %13, i32 0, i32 0
  store i8 %50, ptr %51, align 8, !tbaa !163
  %52 = load ptr, ptr %14, align 8, !tbaa !89
  %53 = getelementptr inbounds nuw %struct.ssl_st, ptr %52, i32 0, i32 3
  %54 = load ptr, ptr %53, align 8, !tbaa !159
  %55 = getelementptr inbounds nuw %struct.ssl_method_st, ptr %54, i32 0, i32 0
  %56 = load i32, ptr %55, align 8, !tbaa !165
  %57 = icmp eq i32 %56, 131071
  br i1 %57, label %58, label %65

58:                                               ; preds = %49
  %59 = load ptr, ptr %7, align 8, !tbaa !97
  %60 = getelementptr inbounds nuw %struct.ssl_connection_st, ptr %59, i32 0, i32 77
  %61 = load i32, ptr %60, align 8, !tbaa !166
  %62 = icmp ne i32 %61, 256
  br i1 %62, label %63, label %65

63:                                               ; preds = %58
  %64 = getelementptr inbounds nuw %struct.ossl_record_template_st, ptr %13, i32 0, i32 1
  store i32 65279, ptr %64, align 4, !tbaa !167
  br label %70

65:                                               ; preds = %58, %49
  %66 = load ptr, ptr %7, align 8, !tbaa !97
  %67 = getelementptr inbounds nuw %struct.ssl_connection_st, ptr %66, i32 0, i32 2
  %68 = load i32, ptr %67, align 8, !tbaa !117
  %69 = getelementptr inbounds nuw %struct.ossl_record_template_st, ptr %13, i32 0, i32 1
  store i32 %68, ptr %69, align 4, !tbaa !167
  br label %70

70:                                               ; preds = %65, %63
  %71 = load ptr, ptr %9, align 8, !tbaa !91
  %72 = getelementptr inbounds nuw %struct.ossl_record_template_st, ptr %13, i32 0, i32 2
  store ptr %71, ptr %72, align 8, !tbaa !168
  %73 = load i64, ptr %10, align 8, !tbaa !92
  %74 = getelementptr inbounds nuw %struct.ossl_record_template_st, ptr %13, i32 0, i32 3
  store i64 %73, ptr %74, align 8, !tbaa !169
  %75 = load ptr, ptr %7, align 8, !tbaa !97
  %76 = load ptr, ptr %7, align 8, !tbaa !97
  %77 = getelementptr inbounds nuw %struct.ssl_connection_st, ptr %76, i32 0, i32 104
  %78 = getelementptr inbounds nuw %struct.record_layer_st, ptr %77, i32 0, i32 4
  %79 = load ptr, ptr %78, align 8, !tbaa !170
  %80 = getelementptr inbounds nuw %struct.ossl_record_method_st, ptr %79, i32 0, i32 6
  %81 = load ptr, ptr %80, align 8, !tbaa !171
  %82 = load ptr, ptr %7, align 8, !tbaa !97
  %83 = getelementptr inbounds nuw %struct.ssl_connection_st, ptr %82, i32 0, i32 104
  %84 = getelementptr inbounds nuw %struct.record_layer_st, ptr %83, i32 0, i32 6
  %85 = load ptr, ptr %84, align 8, !tbaa !172
  %86 = call i32 %81(ptr noundef %85, ptr noundef %13, i64 noundef 1)
  %87 = call i32 @ossl_tls_handle_rlayer_return(ptr noundef %75, i32 noundef 1, i32 noundef %86, ptr noundef @.str, i32 noundef 661)
  store i32 %87, ptr %15, align 4, !tbaa !93
  %88 = load i32, ptr %15, align 4, !tbaa !93
  %89 = icmp sgt i32 %88, 0
  br i1 %89, label %90, label %95

90:                                               ; preds = %70
  %91 = load i64, ptr %10, align 8, !tbaa !92
  %92 = trunc i64 %91 to i32
  %93 = sext i32 %92 to i64
  %94 = load ptr, ptr %11, align 8, !tbaa !94
  store i64 %93, ptr %94, align 8, !tbaa !92
  br label %95

95:                                               ; preds = %90, %70
  %96 = load i32, ptr %15, align 4, !tbaa !93
  store i32 %96, ptr %6, align 4
  store i32 1, ptr %16, align 4
  br label %97

97:                                               ; preds = %95, %47, %40, %34
  call void @llvm.lifetime.end.p0(i64 4, ptr %15) #7
  call void @llvm.lifetime.end.p0(i64 8, ptr %14) #7
  call void @llvm.lifetime.end.p0(i64 24, ptr %13) #7
  call void @llvm.lifetime.end.p0(i64 4, ptr %12) #7
  %98 = load i32, ptr %6, align 4
  ret i32 %98
}