; Function Attrs: nounwind uwtable
define i32 @do_dtls1_write(ptr noundef %0, i8 noundef zeroext %1, ptr noundef %2, i64 noundef %3, ptr noundef writeonly captures(none) %4) local_unnamed_addr #0 {
  %6 = alloca %struct.ossl_record_template_st, align 8
  call void @llvm.lifetime.start.p0(i64 24, ptr nonnull %6) #7
  %7 = getelementptr inbounds nuw i8, ptr %0, i64 452
  %8 = load i32, ptr %7, align 4, !tbaa !145
  %9 = icmp sgt i32 %8, 0
  br i1 %9, label %10, label %17

10:                                               ; preds = %5
  %11 = getelementptr inbounds nuw i8, ptr %0, i64 24
  %12 = load ptr, ptr %11, align 8, !tbaa !146
  %13 = getelementptr inbounds nuw i8, ptr %12, i64 144
  %14 = load ptr, ptr %13, align 8, !tbaa !147
  %15 = tail call i32 %14(ptr noundef nonnull %0) #7
  %16 = icmp slt i32 %15, 1
  br i1 %16, label %50, label %17

17:                                               ; preds = %10, %5
  %18 = icmp eq i64 %3, 0
  br i1 %18, label %50, label %19

19:                                               ; preds = %17
  %20 = tail call i32 @ssl_get_max_send_fragment(ptr noundef nonnull %0) #7
  %21 = zext i32 %20 to i64
  %22 = icmp ugt i64 %3, %21
  br i1 %22, label %23, label %24

23:                                               ; preds = %19
  tail call void @ERR_new() #7
  tail call void @ERR_set_debug(ptr noundef nonnull @.str, i32 noundef 642, ptr noundef nonnull @__func__.do_dtls1_write) #7
  tail call void (ptr, i32, i32, ptr, ...) @ossl_statem_fatal(ptr noundef nonnull %0, i32 noundef 80, i32 noundef 194, ptr noundef null) #7
  br label %50

24:                                               ; preds = %19
  store i8 %1, ptr %6, align 8, !tbaa !150
  %25 = getelementptr inbounds nuw i8, ptr %0, i64 24
  %26 = load ptr, ptr %25, align 8, !tbaa !146
  %27 = load i32, ptr %26, align 8, !tbaa !152
  %28 = icmp eq i32 %27, 131071
  br i1 %28, label %29, label %32

29:                                               ; preds = %24
  %30 = getelementptr inbounds nuw i8, ptr %0, i64 2496
  %31 = load i32, ptr %30, align 8, !tbaa !153
  %.not = icmp eq i32 %31, 256
  br i1 %.not, label %32, label %35

32:                                               ; preds = %29, %24
  %33 = getelementptr inbounds nuw i8, ptr %0, i64 72
  %34 = load i32, ptr %33, align 8, !tbaa !112
  br label %35

35:                                               ; preds = %29, %32
  %.sink = phi i32 [ %34, %32 ], [ 65279, %29 ]
  %36 = getelementptr inbounds nuw i8, ptr %6, i64 4
  store i32 %.sink, ptr %36, align 4, !tbaa !154
  %37 = getelementptr inbounds nuw i8, ptr %6, i64 8
  store ptr %2, ptr %37, align 8, !tbaa !155
  %38 = getelementptr inbounds nuw i8, ptr %6, i64 16
  store i64 %3, ptr %38, align 8, !tbaa !156
  %39 = getelementptr inbounds nuw i8, ptr %0, i64 3192
  %40 = load ptr, ptr %39, align 8, !tbaa !157
  %41 = getelementptr inbounds nuw i8, ptr %40, i64 48
  %42 = load ptr, ptr %41, align 8, !tbaa !158
  %43 = getelementptr inbounds nuw i8, ptr %0, i64 3208
  %44 = load ptr, ptr %43, align 8, !tbaa !159
  %45 = call i32 %42(ptr noundef %44, ptr noundef nonnull %6, i64 noundef 1) #7
  %46 = call i32 @ossl_tls_handle_rlayer_return(ptr noundef nonnull %0, i32 noundef 1, i32 noundef %45, ptr noundef nonnull @.str, i32 noundef 661) #7
  %47 = icmp sgt i32 %46, 0
  br i1 %47, label %48, label %50

48:                                               ; preds = %35
  %sext = shl nuw i64 %3, 32
  %49 = ashr exact i64 %sext, 32
  store i64 %49, ptr %4, align 8, !tbaa !93
  br label %50

50:                                               ; preds = %35, %48, %17, %10, %23
  %.0 = phi i32 [ 0, %23 ], [ %15, %10 ], [ 0, %17 ], [ %46, %48 ], [ %46, %35 ]
  call void @llvm.lifetime.end.p0(i64 24, ptr nonnull %6) #7
  ret i32 %.0
}